target datalayout = "e-m:e-p270:32:32-p271:32:32-p272:64:64-i64:64-i128:128-f80:128-n8:16:32:64-S128"
target triple = "x86_64-pc-linux-gnu"

@ff_vorbis_floor1_inverse_db_table = external hidden constant [256 x float], align 16

; Function Attrs: inlinehint nounwind uwtable
define internal void @render_line_unrolled(i64 noundef %0, i32 noundef %1, i32 noundef %2, i64 noundef %3, i32 noundef %4, i32 noundef %5, ptr noundef %6) #5 {
  %8 = alloca i64, align 8
  %9 = alloca i32, align 4
  %10 = alloca i32, align 4
  %11 = alloca i64, align 8
  %12 = alloca i32, align 4
  %13 = alloca i32, align 4
  %14 = alloca ptr, align 8
  %15 = alloca i32, align 4
  store i64 %0, ptr %8, align 8, !tbaa !46
  store i32 %1, ptr %9, align 4, !tbaa !4
  store i32 %2, ptr %10, align 4, !tbaa !4
  store i64 %3, ptr %11, align 8, !tbaa !46
  store i32 %4, ptr %12, align 4, !tbaa !4
  store i32 %5, ptr %13, align 4, !tbaa !4
  store ptr %6, ptr %14, align 8, !tbaa !39
  call void @llvm.lifetime.start.p0(i64 4, ptr %15) #6
  %16 = load i32, ptr %13, align 4, !tbaa !4
  %17 = sub nsw i32 0, %16
  store i32 %17, ptr %15, align 4, !tbaa !4
  %18 = load i32, ptr %10, align 4, !tbaa !4
  %19 = sub nsw i32 %18, 1
  %20 = sext i32 %19 to i64
  %21 = load i64, ptr %8, align 8, !tbaa !46
  %22 = sub nsw i64 %21, %20
  store i64 %22, ptr %8, align 8, !tbaa !46
  %23 = load i32, ptr %10, align 4, !tbaa !4
  %24 = sub nsw i32 %23, 1
  %25 = load ptr, ptr %14, align 8, !tbaa !39
  %26 = sext i32 %24 to i64
  %27 = getelementptr inbounds float, ptr %25, i64 %26
  store ptr %27, ptr %14, align 8, !tbaa !39
  br label %28

28:                                               ; preds = %58, %7
  %29 = load i64, ptr %8, align 8, !tbaa !46
  %30 = add nsw i64 %29, 1
  store i64 %30, ptr %8, align 8, !tbaa !46
  %31 = icmp slt i64 %30, 0
  br i1 %31, label %32, label %67

32:                                               ; preds = %28
  %33 = load i32, ptr %12, align 4, !tbaa !4
  %34 = load i32, ptr %15, align 4, !tbaa !4
  %35 = add nsw i32 %34, %33
  store i32 %35, ptr %15, align 4, !tbaa !4
  %36 = load i32, ptr %15, align 4, !tbaa !4
  %37 = icmp sge i32 %36, 0
  br i1 %37, label %38, label %58

38:                                               ; preds = %32
  %39 = load i32, ptr %12, align 4, !tbaa !4
  %40 = load i32, ptr %13, align 4, !tbaa !4
  %41 = sub nsw i32 %39, %40
  %42 = load i32, ptr %15, align 4, !tbaa !4
  %43 = add nsw i32 %42, %41
  store i32 %43, ptr %15, align 4, !tbaa !4
  %44 = load i64, ptr %11, align 8, !tbaa !46
  %45 = load i32, ptr %9, align 4, !tbaa !4
  %46 = sext i32 %45 to i64
  %47 = add nsw i64 %46, %44
  %48 = trunc i64 %47 to i32
  store i32 %48, ptr %9, align 4, !tbaa !4
  %49 = load i32, ptr %9, align 4, !tbaa !4
  %50 = call zeroext i8 @av_clip_uint8_c(i32 noundef %49) #7
  %51 = zext i8 %50 to i64
  %52 = getelementptr inbounds nuw [256 x float], ptr @ff_vorbis_floor1_inverse_db_table, i64 0, i64 %51
  %53 = load float, ptr %52, align 4, !tbaa !43
  %54 = load ptr, ptr %14, align 8, !tbaa !39
  %55 = load i64, ptr %8, align 8, !tbaa !46
  %56 = add nsw i64 %55, 1
  store i64 %56, ptr %8, align 8, !tbaa !46
  %57 = getelementptr inbounds float, ptr %54, i64 %55
  store float %53, ptr %57, align 4, !tbaa !43
  br label %58

58:                                               ; preds = %38, %32
  %59 = load i32, ptr %9, align 4, !tbaa !4
  %60 = call zeroext i8 @av_clip_uint8_c(i32 noundef %59) #7
  %61 = zext i8 %60 to i64
  %62 = getelementptr inbounds nuw [256 x float], ptr @ff_vorbis_floor1_inverse_db_table, i64 0, i64 %61
  %63 = load float, ptr %62, align 4, !tbaa !43
  %64 = load ptr, ptr %14, align 8, !tbaa !39
  %65 = load i64, ptr %8, align 8, !tbaa !46
  %66 = getelementptr inbounds float, ptr %64, i64 %65
  store float %63, ptr %66, align 4, !tbaa !43
  br label %28, !llvm.loop !48

67:                                               ; preds = %28
  %68 = load i64, ptr %8, align 8, !tbaa !46
  %69 = icmp sle i64 %68, 0
  br i1 %69, label %70, label %90

70:                                               ; preds = %67
  %71 = load i32, ptr %15, align 4, !tbaa !4
  %72 = load i32, ptr %12, align 4, !tbaa !4
  %73 = add nsw i32 %71, %72
  %74 = icmp sge i32 %73, 0
  br i1 %74, label %75, label %81

75:                                               ; preds = %70
  %76 = load i64, ptr %11, align 8, !tbaa !46
  %77 = load i32, ptr %9, align 4, !tbaa !4
  %78 = sext i32 %77 to i64
  %79 = add nsw i64 %78, %76
  %80 = trunc i64 %79 to i32
  store i32 %80, ptr %9, align 4, !tbaa !4
  br label %81

81:                                               ; preds = %75, %70
  %82 = load i32, ptr %9, align 4, !tbaa !4
  %83 = call zeroext i8 @av_clip_uint8_c(i32 noundef %82) #7
  %84 = zext i8 %83 to i64
  %85 = getelementptr inbounds nuw [256 x float], ptr @ff_vorbis_floor1_inverse_db_table, i64 0, i64 %84
  %86 = load float, ptr %85, align 4, !tbaa !43
  %87 = load ptr, ptr %14, align 8, !tbaa !39
  %88 = load i64, ptr %8, align 8, !tbaa !46
  %89 = getelementptr inbounds float, ptr %87, i64 %88
  store float %86, ptr %89, align 4, !tbaa !43
  br label %90

90:                                               ; preds = %81, %67
  call void @llvm.lifetime.end.p0(i64 4, ptr %15) #6
  ret void
}

; Function Attrs: alwaysinline nounwind willreturn memory(none) uwtable
define internal zeroext i8 @av_clip_uint8_c(i32 noundef %0) #4 {
  %2 = alloca i8, align 1
  %3 = alloca i32, align 4
  store i32 %0, ptr %3, align 4, !tbaa !4
  %4 = load i32, ptr %3, align 4, !tbaa !4
  %5 = and i32 %4, -256
  %6 = icmp ne i32 %5, 0
  br i1 %6, label %7, label %12

7:                                                ; preds = %1
  %8 = load i32, ptr %3, align 4, !tbaa !4
  %9 = xor i32 %8, -1
  %10 = ashr i32 %9, 31
  %11 = trunc i32 %10 to i8
  store i8 %11, ptr %2, align 1
  br label %15

12:                                               ; preds = %1
  %13 = load i32, ptr %3, align 4, !tbaa !4
  %14 = trunc i32 %13 to i8
  store i8 %14, ptr %2, align 1
  br label %15

15:                                               ; preds = %12, %7
  %16 = load i8, ptr %2, align 1
  ret i8 %16
}

; Function Attrs: nounwind uwtable
define internal void @render_line(i32 noundef %0, i32 noundef %1, i32 noundef %2, i32 noundef %3, ptr noundef %4) #0 {
  %6 = alloca i32, align 4
  %7 = alloca i32, align 4
  %8 = alloca i32, align 4
  %9 = alloca i32, align 4
  %10 = alloca ptr, align 8
  %11 = alloca i32, align 4
  %12 = alloca i32, align 4
  %13 = alloca i32, align 4
  %14 = alloca i32, align 4
  %15 = alloca i32, align 4
  %16 = alloca i32, align 4
  %17 = alloca i32, align 4
  %18 = alloca i32, align 4
  store i32 %0, ptr %6, align 4, !tbaa !4
  store i32 %1, ptr %7, align 4, !tbaa !4
  store i32 %2, ptr %8, align 4, !tbaa !4
  store i32 %3, ptr %9, align 4, !tbaa !4
  store ptr %4, ptr %10, align 8, !tbaa !39
  call void @llvm.lifetime.start.p0(i64 4, ptr %11) #6
  %19 = load i32, ptr %9, align 4, !tbaa !4
  %20 = load i32, ptr %7, align 4, !tbaa !4
  %21 = sub nsw i32 %19, %20
  store i32 %21, ptr %11, align 4, !tbaa !4
  call void @llvm.lifetime.start.p0(i64 4, ptr %12) #6
  %22 = load i32, ptr %8, align 4, !tbaa !4
  %23 = load i32, ptr %6, align 4, !tbaa !4
  %24 = sub nsw i32 %22, %23
  store i32 %24, ptr %12, align 4, !tbaa !4
  call void @llvm.lifetime.start.p0(i64 4, ptr %13) #6
  %25 = load i32, ptr %11, align 4, !tbaa !4
  %26 = icmp sge i32 %25, 0
  br i1 %26, label %27, label %29

27:                                               ; preds = %5
  %28 = load i32, ptr %11, align 4, !tbaa !4
  br label %32

29:                                               ; preds = %5
  %30 = load i32, ptr %11, align 4, !tbaa !4
  %31 = sub nsw i32 0, %30
  br label %32

32:                                               ; preds = %29, %27
  %33 = phi i32 [ %28, %27 ], [ %31, %29 ]
  store i32 %33, ptr %13, align 4, !tbaa !4
  call void @llvm.lifetime.start.p0(i64 4, ptr %14) #6
  %34 = load i32, ptr %11, align 4, !tbaa !4
  %35 = icmp slt i32 %34, 0
  %36 = select i1 %35, i32 -1, i32 1
  store i32 %36, ptr %14, align 4, !tbaa !4
  %37 = load i32, ptr %7, align 4, !tbaa !4
  %38 = call zeroext i8 @av_clip_uint8_c(i32 noundef %37) #7
  %39 = zext i8 %38 to i64
  %40 = getelementptr inbounds nuw [256 x float], ptr @ff_vorbis_floor1_inverse_db_table, i64 0, i64 %39
  %41 = load float, ptr %40, align 4, !tbaa !43
  %42 = load ptr, ptr %10, align 8, !tbaa !39
  %43 = load i32, ptr %6, align 4, !tbaa !4
  %44 = sext i32 %43 to i64
  %45 = getelementptr inbounds float, ptr %42, i64 %44
  store float %41, ptr %45, align 4, !tbaa !43
  %46 = load i32, ptr %13, align 4, !tbaa !4
  %47 = mul nsw i32 %46, 2
  %48 = load i32, ptr %12, align 4, !tbaa !4
  %49 = icmp sle i32 %47, %48
  br i1 %49, label %50, label %60

50:                                               ; preds = %32
  %51 = load i32, ptr %6, align 4, !tbaa !4
  %52 = sext i32 %51 to i64
  %53 = load i32, ptr %7, align 4, !tbaa !4
  %54 = load i32, ptr %8, align 4, !tbaa !4
  %55 = load i32, ptr %14, align 4, !tbaa !4
  %56 = sext i32 %55 to i64
  %57 = load i32, ptr %13, align 4, !tbaa !4
  %58 = load i32, ptr %12, align 4, !tbaa !4
  %59 = load ptr, ptr %10, align 8, !tbaa !39
  call void @render_line_unrolled(i64 noundef %52, i32 noundef %53, i32 noundef %54, i64 noundef %56, i32 noundef %57, i32 noundef %58, ptr noundef %59)
  br label %113

60:                                               ; preds = %32
  call void @llvm.lifetime.start.p0(i64 4, ptr %15) #6
  %61 = load i32, ptr %11, align 4, !tbaa !4
  %62 = load i32, ptr %12, align 4, !tbaa !4
  %63 = sdiv i32 %61, %62
  store i32 %63, ptr %15, align 4, !tbaa !4
  call void @llvm.lifetime.start.p0(i64 4, ptr %16) #6
  %64 = load i32, ptr %6, align 4, !tbaa !4
  store i32 %64, ptr %16, align 4, !tbaa !4
  call void @llvm.lifetime.start.p0(i64 4, ptr %17) #6
  %65 = load i32, ptr %7, align 4, !tbaa !4
  store i32 %65, ptr %17, align 4, !tbaa !4
  call void @llvm.lifetime.start.p0(i64 4, ptr %18) #6
  %66 = load i32, ptr %12, align 4, !tbaa !4
  %67 = sub nsw i32 0, %66
  store i32 %67, ptr %18, align 4, !tbaa !4
  %68 = load i32, ptr %15, align 4, !tbaa !4
  %69 = icmp sge i32 %68, 0
  br i1 %69, label %70, label %72

70:                                               ; preds = %60
  %71 = load i32, ptr %15, align 4, !tbaa !4
  br label %75

72:                                               ; preds = %60
  %73 = load i32, ptr %15, align 4, !tbaa !4
  %74 = sub nsw i32 0, %73
  br label %75

75:                                               ; preds = %72, %70
  %76 = phi i32 [ %71, %70 ], [ %74, %72 ]
  %77 = load i32, ptr %12, align 4, !tbaa !4
  %78 = mul nsw i32 %76, %77
  %79 = load i32, ptr %13, align 4, !tbaa !4
  %80 = sub nsw i32 %79, %78
  store i32 %80, ptr %13, align 4, !tbaa !4
  br label %81

81:                                               ; preds = %102, %75
  %82 = load i32, ptr %16, align 4, !tbaa !4
  %83 = add nsw i32 %82, 1
  store i32 %83, ptr %16, align 4, !tbaa !4
  %84 = load i32, ptr %8, align 4, !tbaa !4
  %85 = icmp slt i32 %83, %84
  br i1 %85, label %86, label %112

86:                                               ; preds = %81
  %87 = load i32, ptr %15, align 4, !tbaa !4
  %88 = load i32, ptr %17, align 4, !tbaa !4
  %89 = add nsw i32 %88, %87
  store i32 %89, ptr %17, align 4, !tbaa !4
  %90 = load i32, ptr %13, align 4, !tbaa !4
  %91 = load i32, ptr %18, align 4, !tbaa !4
  %92 = add nsw i32 %91, %90
  store i32 %92, ptr %18, align 4, !tbaa !4
  %93 = load i32, ptr %18, align 4, !tbaa !4
  %94 = icmp sge i32 %93, 0
  br i1 %94, label %95, label %102

95:                                               ; preds = %86
  %96 = load i32, ptr %12, align 4, !tbaa !4
  %97 = load i32, ptr %18, align 4, !tbaa !4
  %98 = sub nsw i32 %97, %96
  store i32 %98, ptr %18, align 4, !tbaa !4
  %99 = load i32, ptr %14, align 4, !tbaa !4
  %100 = load i32, ptr %17, align 4, !tbaa !4
  %101 = add nsw i32 %100, %99
  store i32 %101, ptr %17, align 4, !tbaa !4
  br label %102

102:                                              ; preds = %95, %86
  %103 = load i32, ptr %17, align 4, !tbaa !4
  %104 = call zeroext i8 @av_clip_uint8_c(i32 noundef %103) #7
  %105 = zext i8 %104 to i64
  %106 = getelementptr inbounds nuw [256 x float], ptr @ff_vorbis_floor1_inverse_db_table, i64 0, i64 %105
  %107 = load float, ptr %106, align 4, !tbaa !43
  %108 = load ptr, ptr %10, align 8, !tbaa !39
  %109 = load i32, ptr %16, align 4, !tbaa !4
  %110 = sext i32 %109 to i64
  %111 = getelementptr inbounds float, ptr %108, i64 %110
  store float %107, ptr %111, align 4, !tbaa !43
  br label %81, !llvm.loop !45

112:                                              ; preds = %81
  call void @llvm.lifetime.end.p0(i64 4, ptr %18) #6
  call void @llvm.lifetime.end.p0(i64 4, ptr %17) #6
  call void @llvm.lifetime.end.p0(i64 4, ptr %16) #6
  call void @llvm.lifetime.end.p0(i64 4, ptr %15) #6
  br label %113

113:                                              ; preds = %112, %50
  call void @llvm.lifetime.end.p0(i64 4, ptr %14) #6
  call void @llvm.lifetime.end.p0(i64 4, ptr %13) #6
  call void @llvm.lifetime.end.p0(i64 4, ptr %12) #6
  call void @llvm.lifetime.end.p0(i64 4, ptr %11) #6
  ret void
}